target datalayout = "e-m:e-p270:32:32-p271:32:32-p272:64:64-i64:64-i128:128-f80:128-n8:16:32:64-S128"
target triple = "x86_64-pc-linux-gnu"

%struct.ConnectionType = type { ptr, ptr, ptr, ptr, ptr, ptr, ptr, ptr, ptr, ptr, ptr, ptr, ptr, ptr, ptr, ptr, ptr, ptr, ptr, ptr, ptr, ptr, ptr, ptr, ptr, ptr, ptr, ptr, ptr, ptr }

@connTypes = internal global [8 x ptr] zeroinitializer, align 16

; Function Attrs: nounwind uwtable
define dso_local i32 @connectionIndexByType(ptr noundef %0) #0 {
  %2 = alloca i32, align 4
  %3 = alloca ptr, align 8
  %4 = alloca ptr, align 8
  %5 = alloca i32, align 4
  %6 = alloca i32, align 4
  store ptr %0, ptr %3, align 8, !tbaa !12
  call void @llvm.lifetime.start.p0(i64 8, ptr %4) #6
  call void @llvm.lifetime.start.p0(i64 4, ptr %5) #6
  store i32 0, ptr %5, align 4, !tbaa !14
  br label %7

7:                                                ; preds = %30, %1
  %8 = load i32, ptr %5, align 4, !tbaa !14
  %9 = icmp slt i32 %8, 8
  br i1 %9, label %11, label %10

10:                                               ; preds = %7
  store i32 2, ptr %6, align 4
  br label %33

11:                                               ; preds = %7
  %12 = load i32, ptr %5, align 4, !tbaa !14
  %13 = sext i32 %12 to i64
  %14 = getelementptr inbounds [8 x ptr], ptr @connTypes, i64 0, i64 %13
  %15 = load ptr, ptr %14, align 8, !tbaa !5
  store ptr %15, ptr %4, align 8, !tbaa !5
  %16 = load ptr, ptr %4, align 8, !tbaa !5
  %17 = icmp ne ptr %16, null
  br i1 %17, label %19, label %18

18:                                               ; preds = %11
  store i32 2, ptr %6, align 4
  br label %33

19:                                               ; preds = %11
  %20 = load ptr, ptr %3, align 8, !tbaa !12
  %21 = load ptr, ptr %4, align 8, !tbaa !5
  %22 = getelementptr inbounds nuw %struct.ConnectionType, ptr %21, i32 0, i32 0
  %23 = load ptr, ptr %22, align 8, !tbaa !10
  %24 = call ptr %23(ptr noundef null)
  %25 = call i32 @strcasecmp(ptr noundef %20, ptr noundef %24) #7
  %26 = icmp ne i32 %25, 0
  br i1 %26, label %29, label %27

27:                                               ; preds = %19
  %28 = load i32, ptr %5, align 4, !tbaa !14
  store i32 %28, ptr %2, align 4
  store i32 1, ptr %6, align 4
  br label %33

29:                                               ; preds = %19
  br label %30

30:                                               ; preds = %29
  %31 = load i32, ptr %5, align 4, !tbaa !14
  %32 = add nsw i32 %31, 1
  store i32 %32, ptr %5, align 4, !tbaa !14
  br label %7, !llvm.loop !47

33:                                               ; preds = %27, %18, %10
  call void @llvm.lifetime.end.p0(i64 4, ptr %5) #6
  %34 = load i32, ptr %6, align 4
  switch i32 %34, label %36 [
    i32 2, label %35
  ]

35:                                               ; preds = %33
  store i32 -1, ptr %2, align 4
  store i32 1, ptr %6, align 4
  br label %36

36:                                               ; preds = %35, %33
  call void @llvm.lifetime.end.p0(i64 8, ptr %4) #6
  %37 = load i32, ptr %2, align 4
  ret i32 %37
}