; Function Attrs: nounwind uwtable
define dso_local range(i32 -1, 8) i32 @connectionIndexByType(ptr noundef readonly captures(none) %0) local_unnamed_addr #0 {
  br label %2

2:                                                ; preds = %1, %9
  %indvars.iv = phi i64 [ 0, %1 ], [ %indvars.iv.next, %9 ]
  %3 = getelementptr inbounds nuw [8 x ptr], ptr @connTypes, i64 0, i64 %indvars.iv
  %4 = load ptr, ptr %3, align 8, !tbaa !10
  %.not = icmp eq ptr %4, null
  br i1 %.not, label %.split.loop.exit, label %5

5:                                                ; preds = %2
  %6 = load ptr, ptr %4, align 8, !tbaa !5
  %7 = tail call ptr %6(ptr noundef null) #4
  %8 = tail call i32 @strcasecmp(ptr noundef %0, ptr noundef %7) #5
  %.not11 = icmp eq i32 %8, 0
  br i1 %.not11, label %.split.loop.exit17, label %9

9:                                                ; preds = %5
  %indvars.iv.next = add nuw nsw i64 %indvars.iv, 1
  %exitcond.not = icmp eq i64 %indvars.iv.next, 8
  br i1 %exitcond.not, label %.split.loop.exit, label %2, !llvm.loop !46

.split.loop.exit17:                               ; preds = %5
  %10 = trunc nuw nsw i64 %indvars.iv to i32
  br label %.split.loop.exit

.split.loop.exit:                                 ; preds = %9, %2, %.split.loop.exit17
  %11 = phi i32 [ %10, %.split.loop.exit17 ], [ -1, %2 ], [ -1, %9 ]
  ret i32 %11
}